; Function Attrs: nounwind uwtable
define internal void @pmix_hash_table_destruct(ptr noundef %0) #1 {
  %2 = getelementptr inbounds nuw i8, ptr %0, i64 56
  %3 = load ptr, ptr %2, align 8, !tbaa !3
  %.not.i = icmp eq ptr %3, null
  %4 = getelementptr inbounds nuw i8, ptr %0, i64 136
  %5 = load i64, ptr %4, align 8, !tbaa !11
  %.not18.i = icmp eq i64 %5, 0
  br i1 %.not18.i, label %pmix_hash_table_remove_all.exit, label %.lr.ph.i

.lr.ph.i:                                         ; preds = %1
  %6 = getelementptr inbounds nuw i8, ptr %0, i64 128
  %7 = getelementptr inbounds nuw i8, ptr %0, i64 176
  br label %8

8:                                                ; preds = %18, %.lr.ph.i
  %9 = phi i64 [ %5, %.lr.ph.i ], [ %19, %18 ]
  %.017.i = phi i64 [ 0, %.lr.ph.i ], [ %21, %18 ]
  %10 = load ptr, ptr %6, align 8, !tbaa !17
  %11 = getelementptr inbounds nuw %struct.pmix_hash_element_t, ptr %10, i64 %.017.i
  %12 = load i32, ptr %11, align 8, !tbaa !18
  %.not.i4 = icmp eq i32 %12, 0
  br i1 %.not.i4, label %18, label %13

13:                                               ; preds = %8
  %14 = load ptr, ptr %7, align 8, !tbaa !21
  %.not15.i = icmp eq ptr %14, null
  br i1 %.not15.i, label %18, label %15

15:                                               ; preds = %13
  %16 = load ptr, ptr %14, align 8, !tbaa !22
  %.not16.i = icmp eq ptr %16, null
  br i1 %.not16.i, label %18, label %17

17:                                               ; preds = %15
  tail call void %16(ptr noundef nonnull %11) #13
  %.pre.i = load i64, ptr %4, align 8, !tbaa !11
  br label %18

18:                                               ; preds = %17, %15, %13, %8
  %19 = phi i64 [ %.pre.i, %17 ], [ %9, %15 ], [ %9, %13 ], [ %9, %8 ]
  store i32 0, ptr %11, align 8, !tbaa !18
  %20 = getelementptr inbounds nuw i8, ptr %11, i64 32
  store ptr null, ptr %20, align 8, !tbaa !24
  %21 = add nuw i64 %.017.i, 1
  %22 = icmp ult i64 %21, %19
  br i1 %22, label %8, label %pmix_hash_table_remove_all.exit, !llvm.loop !25

pmix_hash_table_remove_all.exit:                  ; preds = %18, %1
  %23 = getelementptr inbounds nuw i8, ptr %0, i64 144
  store i64 0, ptr %23, align 8, !tbaa !27
  %24 = getelementptr inbounds nuw i8, ptr %0, i64 176
  store ptr null, ptr %24, align 8, !tbaa !21
  %25 = getelementptr inbounds nuw i8, ptr %0, i64 128
  %26 = load ptr, ptr %25, align 8, !tbaa !17
  br i1 %.not.i, label %30, label %27

27:                                               ; preds = %pmix_hash_table_remove_all.exit
  %28 = getelementptr inbounds nuw i8, ptr %0, i64 96
  %29 = load ptr, ptr %28, align 8, !tbaa !28
  tail call void %29(ptr noundef nonnull %2, ptr noundef %26) #13
  br label %pmix_tma_free.exit

30:                                               ; preds = %pmix_hash_table_remove_all.exit
  tail call void @free(ptr noundef %26) #13
  br label %pmix_tma_free.exit

pmix_tma_free.exit:                               ; preds = %27, %30
  ret void
}